; Function Attrs: mustprogress uwtable
define dso_local void @_ZN4Draw10DrawStringE6b2Vec2PKcz(ptr nonnull readnone align 8 captures(none) %0, <2 x float> %1, ptr noundef %2, ...) local_unnamed_addr #5 align 2 {
  %4 = alloca [1 x %struct.__va_list_tag], align 16
  %5 = alloca %struct.ImVec2, align 4
  %6 = alloca %struct.ImVec4, align 8
  %7 = load i32, ptr getelementptr inbounds nuw (i8, ptr @g_camera, i64 12), align 4, !tbaa !4
  %8 = sitofp i32 %7 to float
  %9 = load i32, ptr getelementptr inbounds nuw (i8, ptr @g_camera, i64 16), align 8, !tbaa !11
  %10 = sitofp i32 %9 to float
  %11 = fdiv float %8, %10
  %12 = load float, ptr getelementptr inbounds nuw (i8, ptr @g_camera, i64 8), align 8, !tbaa !13
  %13 = fmul float %12, %11
  %.sroa.05.0.copyload.i = load <2 x float>, ptr @g_camera, align 8
  %.sroa.01.0.vec.extract.i.i = extractelement <2 x float> %.sroa.05.0.copyload.i, i64 0
  %14 = fsub float %.sroa.01.0.vec.extract.i.i, %13
  %.sroa.01.4.vec.extract.i.i = extractelement <2 x float> %.sroa.05.0.copyload.i, i64 1
  %15 = fsub float %.sroa.01.4.vec.extract.i.i, %12
  %16 = fadd float %.sroa.01.0.vec.extract.i.i, %13
  %17 = fadd float %12, %.sroa.01.4.vec.extract.i.i
  %.sroa.020.0.vec.extract.i = extractelement <2 x float> %1, i64 0
  %18 = fsub float %.sroa.020.0.vec.extract.i, %14
  %19 = fsub float %16, %14
  %20 = fdiv float %18, %19
  %.sroa.020.4.vec.extract.i = extractelement <2 x float> %1, i64 1
  %21 = fsub float %.sroa.020.4.vec.extract.i, %15
  %22 = fsub float %17, %15
  %23 = fdiv float %21, %22
  %24 = fmul float %20, %8
  %25 = fsub float 1.000000e+00, %23
  %26 = fmul float %25, %10
  call void @llvm.lifetime.start.p0(i64 24, ptr nonnull %4) #18
  call void @llvm.va_start.p0(ptr nonnull %4)
  %27 = call noundef zeroext i1 @_ZN5ImGui5BeginEPKcPbi(ptr noundef nonnull @.str, ptr noundef null, i32 noundef 197193)
  call void @llvm.lifetime.start.p0(i64 8, ptr nonnull %5) #18
  store float %24, ptr %5, align 4, !tbaa !38
  %28 = getelementptr inbounds nuw i8, ptr %5, i64 4
  store float %26, ptr %28, align 4, !tbaa !40
  call void @_ZN5ImGui12SetCursorPosERK6ImVec2(ptr noundef nonnull align 4 dereferenceable(8) %5)
  call void @llvm.lifetime.end.p0(i64 8, ptr nonnull %5) #18
  call void @llvm.lifetime.start.p0(i64 16, ptr nonnull %6) #18
  store <2 x float> splat (float 0x3FECDCDD00000000), ptr %6, align 8
  %29 = getelementptr inbounds nuw i8, ptr %6, i64 8
  store <2 x float> <float 0x3FECDCDD00000000, float 1.000000e+00>, ptr %29, align 8
  call void @_ZN5ImGui12TextColoredVERK6ImVec4PKcP13__va_list_tag(ptr noundef nonnull align 4 dereferenceable(16) %6, ptr noundef %2, ptr noundef nonnull %4)
  call void @llvm.lifetime.end.p0(i64 16, ptr nonnull %6) #18
  call void @_ZN5ImGui3EndEv()
  call void @llvm.va_end.p0(ptr nonnull %4)
  call void @llvm.lifetime.end.p0(i64 24, ptr nonnull %4) #18
  ret void
}